target datalayout = "e-m:e-p270:32:32-p271:32:32-p272:64:64-i64:64-i128:128-f80:128-n8:16:32:64-S128"
target triple = "x86_64-pc-linux-gnu"

%struct._Unwind_Exception = type { i64, ptr, i64, i64 }
%"struct.__cxxabiv1::__cxa_exception" = type { ptr, i64, ptr, ptr, ptr, ptr, ptr, i32, i32, ptr, ptr, ptr, ptr, %struct._Unwind_Exception }

; Function Attrs: mustprogress uwtable
define internal noundef ptr @_ZN10__cxxabiv1L18get_shim_type_infoEmPKhhbP17_Unwind_Exceptionm(i64 noundef %0, ptr noundef %1, i8 noundef zeroext %2, i1 noundef zeroext %3, ptr noundef %4, i64 noundef %5) #0 {
  %7 = alloca i64, align 8
  %8 = alloca ptr, align 8
  %9 = alloca i8, align 1
  %10 = alloca i8, align 1
  %11 = alloca ptr, align 8
  %12 = alloca i64, align 8
  store i64 %0, ptr %7, align 8, !tbaa !10
  store ptr %1, ptr %8, align 8, !tbaa !42
  store i8 %2, ptr %9, align 1, !tbaa !43
  %13 = zext i1 %3 to i8
  store i8 %13, ptr %10, align 1, !tbaa !17
  store ptr %4, ptr %11, align 8, !tbaa !12
  store i64 %5, ptr %12, align 8, !tbaa !10
  %14 = load ptr, ptr %8, align 8, !tbaa !42
  %15 = icmp eq ptr %14, null
  br i1 %15, label %16, label %20

16:                                               ; preds = %6
  %17 = load i8, ptr %10, align 1, !tbaa !17, !range !19, !noundef !20
  %18 = trunc i8 %17 to i1
  %19 = load ptr, ptr %11, align 8, !tbaa !12
  call void @_ZN10__cxxabiv1L14call_terminateEbP17_Unwind_Exception(i1 noundef zeroext %18, ptr noundef %19)
  br label %20

20:                                               ; preds = %16, %6
  %21 = load i8, ptr %9, align 1, !tbaa !43
  %22 = zext i8 %21 to i32
  %23 = and i32 %22, 15
  switch i32 %23, label %36 [
    i32 0, label %24
    i32 2, label %27
    i32 10, label %27
    i32 3, label %30
    i32 11, label %30
    i32 4, label %33
    i32 12, label %33
  ]

24:                                               ; preds = %20
  %25 = load i64, ptr %7, align 8, !tbaa !10
  %26 = mul i64 %25, 8
  store i64 %26, ptr %7, align 8, !tbaa !10
  br label %40

27:                                               ; preds = %20, %20
  %28 = load i64, ptr %7, align 8, !tbaa !10
  %29 = mul i64 %28, 2
  store i64 %29, ptr %7, align 8, !tbaa !10
  br label %40

30:                                               ; preds = %20, %20
  %31 = load i64, ptr %7, align 8, !tbaa !10
  %32 = mul i64 %31, 4
  store i64 %32, ptr %7, align 8, !tbaa !10
  br label %40

33:                                               ; preds = %20, %20
  %34 = load i64, ptr %7, align 8, !tbaa !10
  %35 = mul i64 %34, 8
  store i64 %35, ptr %7, align 8, !tbaa !10
  br label %40

36:                                               ; preds = %20
  %37 = load i8, ptr %10, align 1, !tbaa !17, !range !19, !noundef !20
  %38 = trunc i8 %37 to i1
  %39 = load ptr, ptr %11, align 8, !tbaa !12
  call void @_ZN10__cxxabiv1L14call_terminateEbP17_Unwind_Exception(i1 noundef zeroext %38, ptr noundef %39)
  br label %40

40:                                               ; preds = %36, %33, %30, %27, %24
  %41 = load i64, ptr %7, align 8, !tbaa !10
  %42 = load ptr, ptr %8, align 8, !tbaa !42
  %43 = sub i64 0, %41
  %44 = getelementptr inbounds i8, ptr %42, i64 %43
  store ptr %44, ptr %8, align 8, !tbaa !42
  %45 = load i8, ptr %9, align 1, !tbaa !43
  %46 = load i64, ptr %12, align 8, !tbaa !10
  %47 = call noundef i64 @_ZN10__cxxabiv1L18readEncodedPointerEPPKhhm(ptr noundef %8, i8 noundef zeroext %45, i64 noundef %46)
  %48 = inttoptr i64 %47 to ptr
  ret ptr %48
}

; Function Attrs: mustprogress nounwind uwtable
define internal noundef i64 @_ZN10__cxxabiv1L11readULEB128EPPKh(ptr noundef %0) #4 {
  %2 = alloca ptr, align 8
  %3 = alloca i64, align 8
  %4 = alloca i64, align 8
  %5 = alloca i8, align 1
  %6 = alloca ptr, align 8
  store ptr %0, ptr %2, align 8, !tbaa !63
  call void @llvm.lifetime.start.p0(i64 8, ptr %3) #10
  store i64 0, ptr %3, align 8, !tbaa !10
  call void @llvm.lifetime.start.p0(i64 8, ptr %4) #10
  store i64 0, ptr %4, align 8, !tbaa !10
  call void @llvm.lifetime.start.p0(i64 1, ptr %5) #10
  call void @llvm.lifetime.start.p0(i64 8, ptr %6) #10
  %7 = load ptr, ptr %2, align 8, !tbaa !63
  %8 = load ptr, ptr %7, align 8, !tbaa !42
  store ptr %8, ptr %6, align 8, !tbaa !42
  br label %9

9:                                                ; preds = %23, %1
  %10 = load ptr, ptr %6, align 8, !tbaa !42
  %11 = getelementptr inbounds nuw i8, ptr %10, i32 1
  store ptr %11, ptr %6, align 8, !tbaa !42
  %12 = load i8, ptr %10, align 1, !tbaa !43
  store i8 %12, ptr %5, align 1, !tbaa !43
  %13 = load i8, ptr %5, align 1, !tbaa !43
  %14 = zext i8 %13 to i32
  %15 = and i32 %14, 127
  %16 = sext i32 %15 to i64
  %17 = load i64, ptr %4, align 8, !tbaa !10
  %18 = shl i64 %16, %17
  %19 = load i64, ptr %3, align 8, !tbaa !10
  %20 = or i64 %19, %18
  store i64 %20, ptr %3, align 8, !tbaa !10
  %21 = load i64, ptr %4, align 8, !tbaa !10
  %22 = add i64 %21, 7
  store i64 %22, ptr %4, align 8, !tbaa !10
  br label %23

23:                                               ; preds = %9
  %24 = load i8, ptr %5, align 1, !tbaa !43
  %25 = zext i8 %24 to i32
  %26 = and i32 %25, 128
  %27 = icmp ne i32 %26, 0
  br i1 %27, label %9, label %28, !llvm.loop !66

28:                                               ; preds = %23
  %29 = load ptr, ptr %6, align 8, !tbaa !42
  %30 = load ptr, ptr %2, align 8, !tbaa !63
  store ptr %29, ptr %30, align 8, !tbaa !42
  %31 = load i64, ptr %3, align 8, !tbaa !10
  call void @llvm.lifetime.end.p0(i64 8, ptr %6) #10
  call void @llvm.lifetime.end.p0(i64 1, ptr %5) #10
  call void @llvm.lifetime.end.p0(i64 8, ptr %4) #10
  call void @llvm.lifetime.end.p0(i64 8, ptr %3) #10
  ret i64 %31
}

; Function Attrs: mustprogress nounwind uwtable
define internal void @_ZN10__cxxabiv1L14call_terminateEbP17_Unwind_Exception(i1 noundef zeroext %0, ptr noundef %1) #4 {
  %3 = alloca i8, align 1
  %4 = alloca ptr, align 8
  %5 = alloca ptr, align 8
  %6 = zext i1 %0 to i8
  store i8 %6, ptr %3, align 1, !tbaa !17
  store ptr %1, ptr %4, align 8, !tbaa !12
  %7 = load ptr, ptr %4, align 8, !tbaa !12
  %8 = call ptr @__cxa_begin_catch(ptr noundef %7) #10
  %9 = load i8, ptr %3, align 1, !tbaa !17, !range !19, !noundef !20
  %10 = trunc i8 %9 to i1
  br i1 %10, label %11, label %18

11:                                               ; preds = %2
  call void @llvm.lifetime.start.p0(i64 8, ptr %5) #10
  %12 = load ptr, ptr %4, align 8, !tbaa !12
  %13 = getelementptr inbounds %struct._Unwind_Exception, ptr %12, i64 1
  %14 = getelementptr inbounds %"struct.__cxxabiv1::__cxa_exception", ptr %13, i64 -1
  store ptr %14, ptr %5, align 8, !tbaa !21
  %15 = load ptr, ptr %5, align 8, !tbaa !21
  %16 = getelementptr inbounds nuw %"struct.__cxxabiv1::__cxa_exception", ptr %15, i32 0, i32 5
  %17 = load ptr, ptr %16, align 8, !tbaa !53
  call void @_ZSt11__terminatePFvvE(ptr noundef %17) #11
  unreachable

18:                                               ; preds = %2
  call void @_ZSt9terminatev() #11
  unreachable
}

; Function Attrs: mustprogress uwtable
define internal noundef zeroext i1 @_ZN10__cxxabiv1L24exception_spec_can_catchElPKhhPKNS_16__shim_type_infoEPvP17_Unwind_Exceptionm(i64 noundef %0, ptr noundef %1, i8 noundef zeroext %2, ptr noundef %3, ptr noundef %4, ptr noundef %5, i64 noundef %6) #0 {
  %8 = alloca i1, align 1
  %9 = alloca i64, align 8
  %10 = alloca ptr, align 8
  %11 = alloca i8, align 1
  %12 = alloca ptr, align 8
  %13 = alloca ptr, align 8
  %14 = alloca ptr, align 8
  %15 = alloca i64, align 8
  %16 = alloca ptr, align 8
  %17 = alloca i64, align 8
  %18 = alloca i32, align 4
  %19 = alloca ptr, align 8
  %20 = alloca ptr, align 8
  store i64 %0, ptr %9, align 8, !tbaa !10
  store ptr %1, ptr %10, align 8, !tbaa !42
  store i8 %2, ptr %11, align 1, !tbaa !43
  store ptr %3, ptr %12, align 8, !tbaa !44
  store ptr %4, ptr %13, align 8, !tbaa !46
  store ptr %5, ptr %14, align 8, !tbaa !12
  store i64 %6, ptr %15, align 8, !tbaa !10
  %21 = load ptr, ptr %10, align 8, !tbaa !42
  %22 = icmp eq ptr %21, null
  br i1 %22, label %23, label %25

23:                                               ; preds = %7
  %24 = load ptr, ptr %14, align 8, !tbaa !12
  call void @_ZN10__cxxabiv1L14call_terminateEbP17_Unwind_Exception(i1 noundef zeroext false, ptr noundef %24)
  br label %25

25:                                               ; preds = %23, %7
  %26 = load i64, ptr %9, align 8, !tbaa !10
  %27 = sub nsw i64 0, %26
  store i64 %27, ptr %9, align 8, !tbaa !10
  %28 = load i64, ptr %9, align 8, !tbaa !10
  %29 = add nsw i64 %28, -1
  store i64 %29, ptr %9, align 8, !tbaa !10
  call void @llvm.lifetime.start.p0(i64 8, ptr %16) #10
  %30 = load ptr, ptr %10, align 8, !tbaa !42
  %31 = load i64, ptr %9, align 8, !tbaa !10
  %32 = getelementptr inbounds i8, ptr %30, i64 %31
  store ptr %32, ptr %16, align 8, !tbaa !42
  br label %33

33:                                               ; preds = %58, %25
  br label %34

34:                                               ; preds = %33
  call void @llvm.lifetime.start.p0(i64 8, ptr %17) #10
  %35 = call noundef i64 @_ZN10__cxxabiv1L11readULEB128EPPKh(ptr noundef %16)
  store i64 %35, ptr %17, align 8, !tbaa !10
  %36 = load i64, ptr %17, align 8, !tbaa !10
  %37 = icmp eq i64 %36, 0
  br i1 %37, label %38, label %39

38:                                               ; preds = %34
  store i32 3, ptr %18, align 4
  br label %56

39:                                               ; preds = %34
  call void @llvm.lifetime.start.p0(i64 8, ptr %19) #10
  %40 = load i64, ptr %17, align 8, !tbaa !10
  %41 = load ptr, ptr %10, align 8, !tbaa !42
  %42 = load i8, ptr %11, align 1, !tbaa !43
  %43 = load ptr, ptr %14, align 8, !tbaa !12
  %44 = load i64, ptr %15, align 8, !tbaa !10
  %45 = call noundef ptr @_ZN10__cxxabiv1L18get_shim_type_infoEmPKhhbP17_Unwind_Exceptionm(i64 noundef %40, ptr noundef %41, i8 noundef zeroext %42, i1 noundef zeroext true, ptr noundef %43, i64 noundef %44)
  store ptr %45, ptr %19, align 8, !tbaa !44
  call void @llvm.lifetime.start.p0(i64 8, ptr %20) #10
  %46 = load ptr, ptr %13, align 8, !tbaa !46
  store ptr %46, ptr %20, align 8, !tbaa !46
  %47 = load ptr, ptr %19, align 8, !tbaa !44
  %48 = load ptr, ptr %12, align 8, !tbaa !44
  %49 = load ptr, ptr %47, align 8, !tbaa !48
  %50 = getelementptr inbounds ptr, ptr %49, i64 4
  %51 = load ptr, ptr %50, align 8
  %52 = call noundef zeroext i1 %51(ptr noundef nonnull align 8 dereferenceable(16) %47, ptr noundef %48, ptr noundef nonnull align 8 dereferenceable(8) %20)
  br i1 %52, label %53, label %54

53:                                               ; preds = %39
  store i1 false, ptr %8, align 1
  store i32 1, ptr %18, align 4
  br label %55

54:                                               ; preds = %39
  store i32 0, ptr %18, align 4
  br label %55

55:                                               ; preds = %54, %53
  call void @llvm.lifetime.end.p0(i64 8, ptr %20) #10
  call void @llvm.lifetime.end.p0(i64 8, ptr %19) #10
  br label %56

56:                                               ; preds = %55, %38
  call void @llvm.lifetime.end.p0(i64 8, ptr %17) #10
  %57 = load i32, ptr %18, align 4
  switch i32 %57, label %60 [
    i32 0, label %58
    i32 3, label %59
  ]

58:                                               ; preds = %56
  br label %33, !llvm.loop !67

59:                                               ; preds = %56
  store i1 true, ptr %8, align 1
  store i32 1, ptr %18, align 4
  br label %60

60:                                               ; preds = %59, %56
  call void @llvm.lifetime.end.p0(i64 8, ptr %16) #10
  %61 = load i1, ptr %8, align 1
  ret i1 %61
}