; Function Attrs: mustprogress uwtable
define internal fastcc noundef zeroext i1 @_ZN10__cxxabiv1L24exception_spec_can_catchElPKhhPKNS_16__shim_type_infoEPvP17_Unwind_Exceptionm(i64 noundef %0, ptr noundef %1, i8 noundef zeroext %2, ptr noundef %3, ptr noundef %4, ptr noundef %5, i64 noundef %6) unnamed_addr #0 {
  %8 = alloca ptr, align 8
  %9 = alloca ptr, align 8
  %10 = icmp eq ptr %1, null
  br i1 %10, label %11, label %13

11:                                               ; preds = %7
  %12 = tail call ptr @__cxa_begin_catch(ptr noundef %5) #12
  tail call void @_ZSt9terminatev() #13
  unreachable

13:                                               ; preds = %7
  %14 = xor i64 %0, -1
  %15 = getelementptr inbounds i8, ptr %1, i64 %14
  %16 = and i8 %2, 15
  %17 = icmp samesign ult i8 %16, 13
  %switch.maskindex = zext nneg i8 %16 to i16
  %switch.shifted = lshr i16 7197, %switch.maskindex
  %switch.lobit = trunc i16 %switch.shifted to i1
  %18 = zext nneg i8 %16 to i64
  %switch.gep = getelementptr inbounds nuw [13 x i64], ptr @switch.table._ZN10__cxxabiv1L24exception_spec_can_catchElPKhhPKNS_16__shim_type_infoEPvP17_Unwind_Exceptionm, i64 0, i64 %18
  br label %19

19:                                               ; preds = %.backedge, %13
  %.010.i = phi i64 [ 0, %13 ], [ %.010.i.be, %.backedge ]
  %.09.i = phi i64 [ 0, %13 ], [ %.09.i.be, %.backedge ]
  %.0.i = phi ptr [ %15, %13 ], [ %20, %.backedge ]
  %20 = getelementptr inbounds nuw i8, ptr %.0.i, i64 1
  %21 = load i8, ptr %.0.i, align 1, !tbaa !17
  %22 = and i8 %21, 127
  %23 = zext nneg i8 %22 to i64
  %24 = shl i64 %23, %.010.i
  %25 = or i64 %24, %.09.i
  %26 = add i64 %.010.i, 7
  %.not.i = icmp sgt i8 %21, -1
  br i1 %.not.i, label %_ZN10__cxxabiv1L11readULEB128EPPKh.exit, label %.backedge

.backedge:                                        ; preds = %19, %switch.lookup
  %.010.i.be = phi i64 [ %26, %19 ], [ 0, %switch.lookup ]
  %.09.i.be = phi i64 [ %25, %19 ], [ 0, %switch.lookup ]
  br label %19, !llvm.loop !18

_ZN10__cxxabiv1L11readULEB128EPPKh.exit:          ; preds = %19
  %27 = icmp eq i64 %25, 0
  br i1 %27, label %.thread, label %28

28:                                               ; preds = %_ZN10__cxxabiv1L11readULEB128EPPKh.exit
  call void @llvm.lifetime.start.p0(i64 8, ptr nonnull %8)
  %.not = xor i1 %17, true
  %switch.lobit.not = xor i1 %switch.lobit, true
  %brmerge = select i1 %.not, i1 true, i1 %switch.lobit.not
  br i1 %brmerge, label %29, label %switch.lookup

29:                                               ; preds = %28
  %30 = call ptr @__cxa_begin_catch(ptr noundef %5) #12
  %31 = getelementptr inbounds i8, ptr %5, i64 -56
  %32 = load ptr, ptr %31, align 8, !tbaa !21
  call void @_ZSt11__terminatePFvvE(ptr noundef %32) #13
  unreachable

switch.lookup:                                    ; preds = %28
  %switch.load = load i64, ptr %switch.gep, align 8
  %.neg.i = mul i64 %switch.load, %25
  %33 = getelementptr inbounds i8, ptr %1, i64 %.neg.i
  store ptr %33, ptr %8, align 8, !tbaa !16
  %34 = call fastcc noundef i64 @_ZN10__cxxabiv1L18readEncodedPointerEPPKhhm(ptr noundef %8, i8 noundef zeroext %2, i64 noundef %6)
  %35 = inttoptr i64 %34 to ptr
  call void @llvm.lifetime.end.p0(i64 8, ptr nonnull %8)
  call void @llvm.lifetime.start.p0(i64 8, ptr nonnull %9) #12
  store ptr %4, ptr %9, align 8, !tbaa !24
  %36 = load ptr, ptr %35, align 8, !tbaa !26
  %37 = getelementptr inbounds nuw i8, ptr %36, i64 32
  %38 = load ptr, ptr %37, align 8
  %39 = call noundef zeroext i1 %38(ptr noundef nonnull align 8 dereferenceable(16) %35, ptr noundef %3, ptr noundef nonnull align 8 dereferenceable(8) %9)
  call void @llvm.lifetime.end.p0(i64 8, ptr nonnull %9) #12
  br i1 %39, label %.thread, label %.backedge

.thread:                                          ; preds = %switch.lookup, %_ZN10__cxxabiv1L11readULEB128EPPKh.exit
  ret i1 %27
}